target datalayout = "e-m:e-p270:32:32-p271:32:32-p272:64:64-i64:64-i128:128-f80:128-n8:16:32:64-S128"
target triple = "x86_64-pc-linux-gnu"

%"struct.Type::TypeInfo" = type { i32, i8, ptr, i8, i32, i32 }
%class.Type = type <{ ptr, ptr, i32, [4 x i8] }>

@_ZN4Type10_type_infoE = external global [0 x %"struct.Type::TypeInfo"], align 8
@_ZN4Type17_const_basic_typeE = external global [20 x ptr], align 16

; Function Attrs: mustprogress nounwind uwtable
define linkonce_odr hidden noundef ptr @_ZN4Type20get_const_basic_typeE9BasicType(i8 noundef zeroext %0) #1 comdat align 2 {
  %2 = alloca i8, align 1
  store i8 %0, ptr %2, align 1
  %3 = load i8, ptr %2, align 1
  %4 = zext i8 %3 to i64
  %5 = getelementptr inbounds [20 x ptr], ptr @_ZN4Type17_const_basic_typeE, i64 0, i64 %4
  %6 = load ptr, ptr %5, align 8
  ret ptr %6
}

; Function Attrs: mustprogress nounwind uwtable
define linkonce_odr hidden noundef zeroext i8 @_ZNK4Type10basic_typeEv(ptr noundef nonnull align 8 dereferenceable(20) %0) #1 comdat align 2 {
  %2 = alloca ptr, align 8
  store ptr %0, ptr %2, align 8
  %3 = load ptr, ptr %2, align 8
  %4 = getelementptr inbounds %class.Type, ptr %3, i32 0, i32 2
  %5 = load i32, ptr %4, align 8
  %6 = zext i32 %5 to i64
  %7 = getelementptr inbounds [0 x %"struct.Type::TypeInfo"], ptr @_ZN4Type10_type_infoE, i64 0, i64 %6
  %8 = getelementptr inbounds %"struct.Type::TypeInfo", ptr %7, i32 0, i32 1
  %9 = load i8, ptr %8, align 4
  ret i8 %9
}

; Function Attrs: mustprogress nounwind uwtable
define hidden noundef ptr @_ZN8IdealKit14promote_to_phiEP4NodeS1_(ptr noundef nonnull align 8 dereferenceable(64) %0, ptr noundef %1, ptr noundef %2) #1 align 2 {
  %4 = alloca ptr, align 8
  %5 = alloca ptr, align 8
  %6 = alloca ptr, align 8
  %7 = alloca i8, align 1
  %8 = alloca ptr, align 8
  store ptr %0, ptr %4, align 8
  store ptr %1, ptr %5, align 8
  store ptr %2, ptr %6, align 8
  %9 = load ptr, ptr %4, align 8
  %10 = load ptr, ptr %5, align 8
  %11 = load ptr, ptr %10, align 8
  %12 = getelementptr inbounds ptr, ptr %11, i64 5
  %13 = load ptr, ptr %12, align 8
  %14 = call noundef ptr %13(ptr noundef nonnull align 8 dereferenceable(52) %10)
  %15 = call noundef zeroext i8 @_ZNK4Type10basic_typeEv(ptr noundef nonnull align 8 dereferenceable(20) %14)
  store i8 %15, ptr %7, align 1
  %16 = load i8, ptr %7, align 1
  %17 = call noundef ptr @_ZN4Type20get_const_basic_typeE9BasicType(i8 noundef zeroext %16)
  store ptr %17, ptr %8, align 8
  %18 = load ptr, ptr %6, align 8
  %19 = load ptr, ptr %5, align 8
  %20 = load ptr, ptr %8, align 8
  %21 = call noundef ptr @_ZN7PhiNode4makeEP4NodeS1_PK4TypePK7TypePtr(ptr noundef %18, ptr noundef %19, ptr noundef %20, ptr noundef null)
  %22 = call noundef ptr @_ZN8IdealKit15delay_transformEP4Node(ptr noundef nonnull align 8 dereferenceable(64) %9, ptr noundef %21)
  ret ptr %22
}