; Function Attrs: mustprogress nounwind uwtable
define hidden noundef ptr @_ZN8IdealKit14promote_to_phiEP4NodeS1_(ptr nocapture noundef nonnull readonly align 8 dereferenceable(64) %0, ptr noundef %1, ptr noundef %2) local_unnamed_addr #0 align 2 {
  %4 = load ptr, ptr %1, align 8
  %5 = getelementptr inbounds i8, ptr %4, i64 40
  %6 = load ptr, ptr %5, align 8
  %7 = tail call noundef ptr %6(ptr noundef nonnull align 8 dereferenceable(52) %1) #6
  %8 = getelementptr inbounds i8, ptr %7, i64 16
  %9 = load i32, ptr %8, align 8
  %10 = zext i32 %9 to i64
  %11 = getelementptr inbounds [0 x %"struct.Type::TypeInfo"], ptr @_ZN4Type10_type_infoE, i64 0, i64 %10, i32 1
  %12 = load i8, ptr %11, align 4
  %13 = zext i8 %12 to i64
  %14 = getelementptr inbounds [20 x ptr], ptr @_ZN4Type17_const_basic_typeE, i64 0, i64 %13
  %15 = load ptr, ptr %14, align 8
  %16 = tail call noundef ptr @_ZN7PhiNode4makeEP4NodeS1_PK4TypePK7TypePtr(ptr noundef %2, ptr noundef nonnull %1, ptr noundef %15, ptr noundef null) #6
  %17 = tail call noundef ptr @_ZN8IdealKit15delay_transformEP4Node(ptr noundef nonnull align 8 dereferenceable(64) %0, ptr noundef %16)
  ret ptr %16
}